target datalayout = "e-m:e-p270:32:32-p271:32:32-p272:64:64-i64:64-i128:128-f80:128-n8:16:32:64-S128"
target triple = "x86_64-pc-linux-gnu"

%"class.open3d::core::Device" = type { i32, i32 }
%"class.std::__shared_ptr" = type { ptr, %"class.std::__shared_count" }
%"class.std::__shared_count" = type { ptr }

@.str = private unnamed_addr constant [139 x i8] c"generated/home/dtcxzyw/WorkSpace/Projects/compilers/llvm-opt-benchmark/bench/open3d/Open3D/cpp/open3d/t/geometry/kernel/VoxelBlockGrid.cpp\00", align 1
@.str.2 = private unnamed_addr constant [21 x i8] c"Unimplemented device\00", align 1
@.str.4 = private unnamed_addr constant [48 x i8] c"Not built with CUDA, cannot call DepthTouchCUDA\00", align 1

; Function Attrs: mustprogress nounwind ssp uwtable
define linkonce_odr hidden noundef ptr @_ZNKSt12__shared_ptrIN6open3d4core7HashMapELN9__gnu_cxx12_Lock_policyE2EE3getEv(ptr noundef nonnull align 8 dereferenceable(16) %0) #1 comdat align 2 {
  %2 = alloca ptr, align 8
  store ptr %0, ptr %2, align 8, !tbaa !23
  %3 = load ptr, ptr %2, align 8
  %4 = getelementptr inbounds nuw %"class.std::__shared_ptr", ptr %3, i32 0, i32 0
  %5 = load ptr, ptr %4, align 8, !tbaa !25
  ret ptr %5
}

; Function Attrs: inlinehint mustprogress nounwind ssp uwtable
define linkonce_odr hidden noundef i32 @_ZNK6open3d4core6Device7GetTypeEv(ptr noundef nonnull align 4 dereferenceable(8) %0) #6 comdat align 2 {
  %2 = alloca ptr, align 8
  store ptr %0, ptr %2, align 8, !tbaa !30
  %3 = load ptr, ptr %2, align 8
  %4 = getelementptr inbounds nuw %"class.open3d::core::Device", ptr %3, i32 0, i32 0
  %5 = load i32, ptr %4, align 4, !tbaa !32
  ret i32 %5
}

; Function Attrs: mustprogress nounwind ssp uwtable
define linkonce_odr hidden noundef ptr @_ZNKSt19__shared_ptr_accessIN6open3d4core7HashMapELN9__gnu_cxx12_Lock_policyE2ELb0ELb0EE6_M_getEv(ptr noundef nonnull align 1 dereferenceable(1) %0) #1 comdat align 2 {
  %2 = alloca ptr, align 8
  store ptr %0, ptr %2, align 8, !tbaa !15
  %3 = load ptr, ptr %2, align 8
  %4 = call noundef ptr @_ZNKSt12__shared_ptrIN6open3d4core7HashMapELN9__gnu_cxx12_Lock_policyE2EE3getEv(ptr noundef nonnull align 8 dereferenceable(16) %3) #24
  ret ptr %4
}

; Function Attrs: inlinehint mustprogress ssp uwtable
define linkonce_odr hidden noundef zeroext i1 @_ZNK6open3d4core8IsDevice6IsCUDAEv(ptr noundef nonnull align 8 dereferenceable(8) %0) #2 comdat align 2 {
  %2 = alloca ptr, align 8
  %3 = alloca %"class.open3d::core::Device", align 4
  store ptr %0, ptr %2, align 8, !tbaa !17
  %4 = load ptr, ptr %2, align 8
  call void @llvm.lifetime.start.p0(i64 8, ptr %3) #24
  %5 = load ptr, ptr %4, align 8, !tbaa !19
  %6 = getelementptr inbounds ptr, ptr %5, i64 2
  %7 = load ptr, ptr %6, align 8
  %8 = call i64 %7(ptr noundef nonnull align 8 dereferenceable(8) %4)
  store i64 %8, ptr %3, align 4
  %9 = call noundef i32 @_ZNK6open3d4core6Device7GetTypeEv(ptr noundef nonnull align 4 dereferenceable(8) %3)
  %10 = icmp eq i32 %9, 1
  call void @llvm.lifetime.end.p0(i64 8, ptr %3) #24
  ret i1 %10
}

; Function Attrs: inlinehint mustprogress ssp uwtable
define linkonce_odr hidden noundef zeroext i1 @_ZNK6open3d4core8IsDevice5IsCPUEv(ptr noundef nonnull align 8 dereferenceable(8) %0) #2 comdat align 2 {
  %2 = alloca ptr, align 8
  %3 = alloca %"class.open3d::core::Device", align 4
  store ptr %0, ptr %2, align 8, !tbaa !17
  %4 = load ptr, ptr %2, align 8
  call void @llvm.lifetime.start.p0(i64 8, ptr %3) #24
  %5 = load ptr, ptr %4, align 8, !tbaa !19
  %6 = getelementptr inbounds ptr, ptr %5, i64 2
  %7 = load ptr, ptr %6, align 8
  %8 = call i64 %7(ptr noundef nonnull align 8 dereferenceable(8) %4)
  store i64 %8, ptr %3, align 4
  %9 = call noundef i32 @_ZNK6open3d4core6Device7GetTypeEv(ptr noundef nonnull align 4 dereferenceable(8) %3)
  %10 = icmp eq i32 %9, 0
  call void @llvm.lifetime.end.p0(i64 8, ptr %3) #24
  ret i1 %10
}

; Function Attrs: mustprogress nounwind ssp uwtable
define linkonce_odr hidden noundef ptr @_ZNKSt19__shared_ptr_accessIN6open3d4core7HashMapELN9__gnu_cxx12_Lock_policyE2ELb0ELb0EEptEv(ptr noundef nonnull align 1 dereferenceable(1) %0) #1 comdat align 2 {
  %2 = alloca ptr, align 8
  store ptr %0, ptr %2, align 8, !tbaa !15
  %3 = load ptr, ptr %2, align 8
  %4 = call noundef ptr @_ZNKSt19__shared_ptr_accessIN6open3d4core7HashMapELN9__gnu_cxx12_Lock_policyE2ELb0ELb0EE6_M_getEv(ptr noundef nonnull align 1 dereferenceable(1) %3) #24
  ret ptr %4
}

; Function Attrs: mustprogress ssp uwtable
define hidden void @_ZN6open3d1t8geometry6kernel10voxel_grid10DepthTouchERSt10shared_ptrINS_4core7HashMapEERKNS5_6TensorESB_SB_RS9_iffffi(ptr noundef nonnull align 8 dereferenceable(16) %0, ptr noundef nonnull align 8 dereferenceable(160) %1, ptr noundef nonnull align 8 dereferenceable(160) %2, ptr noundef nonnull align 8 dereferenceable(160) %3, ptr noundef nonnull align 8 dereferenceable(160) %4, i32 noundef %5, float noundef %6, float noundef %7, float noundef %8, float noundef %9, i32 noundef %10) #0 {
  %12 = alloca ptr, align 8
  %13 = alloca ptr, align 8
  %14 = alloca ptr, align 8
  %15 = alloca ptr, align 8
  %16 = alloca ptr, align 8
  %17 = alloca i32, align 4
  %18 = alloca float, align 4
  %19 = alloca float, align 4
  %20 = alloca float, align 4
  %21 = alloca float, align 4
  %22 = alloca i32, align 4
  store ptr %0, ptr %12, align 8, !tbaa !4
  store ptr %1, ptr %13, align 8, !tbaa !9
  store ptr %2, ptr %14, align 8, !tbaa !9
  store ptr %3, ptr %15, align 8, !tbaa !9
  store ptr %4, ptr %16, align 8, !tbaa !9
  store i32 %5, ptr %17, align 4, !tbaa !11
  store float %6, ptr %18, align 4, !tbaa !13
  store float %7, ptr %19, align 4, !tbaa !13
  store float %8, ptr %20, align 4, !tbaa !13
  store float %9, ptr %21, align 4, !tbaa !13
  store i32 %10, ptr %22, align 4, !tbaa !11
  %23 = load ptr, ptr %12, align 8, !tbaa !4
  %24 = call noundef ptr @_ZNKSt19__shared_ptr_accessIN6open3d4core7HashMapELN9__gnu_cxx12_Lock_policyE2ELb0ELb0EEptEv(ptr noundef nonnull align 1 dereferenceable(1) %23) #24
  %25 = call noundef zeroext i1 @_ZNK6open3d4core8IsDevice5IsCPUEv(ptr noundef nonnull align 8 dereferenceable(8) %24)
  br i1 %25, label %26, label %38

26:                                               ; preds = %11
  %27 = load ptr, ptr %12, align 8, !tbaa !4
  %28 = load ptr, ptr %13, align 8, !tbaa !9
  %29 = load ptr, ptr %14, align 8, !tbaa !9
  %30 = load ptr, ptr %15, align 8, !tbaa !9
  %31 = load ptr, ptr %16, align 8, !tbaa !9
  %32 = load i32, ptr %17, align 4, !tbaa !11
  %33 = load float, ptr %18, align 4, !tbaa !13
  %34 = load float, ptr %19, align 4, !tbaa !13
  %35 = load float, ptr %20, align 4, !tbaa !13
  %36 = load float, ptr %21, align 4, !tbaa !13
  %37 = load i32, ptr %22, align 4, !tbaa !11
  call void @_ZN6open3d1t8geometry6kernel10voxel_grid13DepthTouchCPUERSt10shared_ptrINS_4core7HashMapEERKNS5_6TensorESB_SB_RS9_iffffi(ptr noundef nonnull align 8 dereferenceable(16) %27, ptr noundef nonnull align 8 dereferenceable(160) %28, ptr noundef nonnull align 8 dereferenceable(160) %29, ptr noundef nonnull align 8 dereferenceable(160) %30, ptr noundef nonnull align 8 dereferenceable(160) %31, i32 noundef %32, float noundef %33, float noundef %34, float noundef %35, float noundef %36, i32 noundef %37)
  br label %44

38:                                               ; preds = %11
  %39 = load ptr, ptr %12, align 8, !tbaa !4
  %40 = call noundef ptr @_ZNKSt19__shared_ptr_accessIN6open3d4core7HashMapELN9__gnu_cxx12_Lock_policyE2ELb0ELb0EEptEv(ptr noundef nonnull align 1 dereferenceable(1) %39) #24
  %41 = call noundef zeroext i1 @_ZNK6open3d4core8IsDevice6IsCUDAEv(ptr noundef nonnull align 8 dereferenceable(8) %40)
  br i1 %41, label %42, label %43

42:                                               ; preds = %38
  call void @_ZN6open3d7utility6Logger9LogError_IJEEEvPKciS4_S4_DpOT_(ptr noundef @.str, i32 noundef 59, ptr noundef @__PRETTY_FUNCTION__._ZN6open3d1t8geometry6kernel10voxel_grid10DepthTouchERSt10shared_ptrINS_4core7HashMapEERKNS5_6TensorESB_SB_RS9_iffffi, ptr noundef @.str.4) #27
  unreachable

43:                                               ; preds = %38
  call void @_ZN6open3d7utility6Logger9LogError_IJEEEvPKciS4_S4_DpOT_(ptr noundef @.str, i32 noundef 61, ptr noundef @__PRETTY_FUNCTION__._ZN6open3d1t8geometry6kernel10voxel_grid10DepthTouchERSt10shared_ptrINS_4core7HashMapEERKNS5_6TensorESB_SB_RS9_iffffi, ptr noundef @.str.2) #27
  unreachable

44:                                               ; preds = %26
  ret void
}