; Function Attrs: mustprogress ssp uwtable
define hidden void @_ZN6open3d1t8geometry6kernel10voxel_grid10DepthTouchERSt10shared_ptrINS_4core7HashMapEERKNS5_6TensorESB_SB_RS9_iffffi(ptr noundef nonnull align 8 dereferenceable(16) %0, ptr noundef nonnull align 8 dereferenceable(160) %1, ptr noundef nonnull align 8 dereferenceable(160) %2, ptr noundef nonnull align 8 dereferenceable(160) %3, ptr noundef nonnull align 8 dereferenceable(160) %4, i32 noundef %5, float noundef %6, float noundef %7, float noundef %8, float noundef %9, i32 noundef %10) local_unnamed_addr #0 {
  %12 = load ptr, ptr %0, align 8, !tbaa !4
  %13 = load ptr, ptr %12, align 8, !tbaa !12
  %14 = getelementptr inbounds nuw i8, ptr %13, i64 16
  %15 = load ptr, ptr %14, align 8
  %16 = tail call i64 %15(ptr noundef nonnull align 8 dereferenceable(8) %12)
  %17 = and i64 %16, 4294967295
  %18 = icmp eq i64 %17, 0
  br i1 %18, label %19, label %20

19:                                               ; preds = %11
  tail call void @_ZN6open3d1t8geometry6kernel10voxel_grid13DepthTouchCPUERSt10shared_ptrINS_4core7HashMapEERKNS5_6TensorESB_SB_RS9_iffffi(ptr noundef nonnull align 8 dereferenceable(16) %0, ptr noundef nonnull align 8 dereferenceable(160) %1, ptr noundef nonnull align 8 dereferenceable(160) %2, ptr noundef nonnull align 8 dereferenceable(160) %3, ptr noundef nonnull align 8 dereferenceable(160) %4, i32 noundef %5, float noundef %6, float noundef %7, float noundef %8, float noundef %9, i32 noundef %10)
  ret void

20:                                               ; preds = %11
  %21 = load ptr, ptr %0, align 8, !tbaa !4
  %22 = load ptr, ptr %21, align 8, !tbaa !12
  %23 = getelementptr inbounds nuw i8, ptr %22, i64 16
  %24 = load ptr, ptr %23, align 8
  %25 = tail call i64 %24(ptr noundef nonnull align 8 dereferenceable(8) %21)
  %26 = and i64 %25, 4294967295
  %27 = icmp eq i64 %26, 1
  br i1 %27, label %28, label %29

28:                                               ; preds = %20
  tail call void @_ZN6open3d7utility6Logger9LogError_IJEEEvPKciS4_S4_DpOT_(ptr noundef nonnull @.str, i32 noundef 59, ptr noundef nonnull @__PRETTY_FUNCTION__._ZN6open3d1t8geometry6kernel10voxel_grid10DepthTouchERSt10shared_ptrINS_4core7HashMapEERKNS5_6TensorESB_SB_RS9_iffffi, ptr noundef nonnull @.str.4) #30
  unreachable

29:                                               ; preds = %20
  tail call void @_ZN6open3d7utility6Logger9LogError_IJEEEvPKciS4_S4_DpOT_(ptr noundef nonnull @.str, i32 noundef 61, ptr noundef nonnull @__PRETTY_FUNCTION__._ZN6open3d1t8geometry6kernel10voxel_grid10DepthTouchERSt10shared_ptrINS_4core7HashMapEERKNS5_6TensorESB_SB_RS9_iffffi, ptr noundef nonnull @.str.2) #30
  unreachable
}